Certificate:
    Data:
        Version: 3 (0x2)
        Serial Number: 3 (0x3)
        Signature Algorithm: md5WithRSAEncryption
        Issuer: C=DE, L=NRW, O=TU, OU=DA, CN=ca cert
        Validity
            Not Before: Sep 30 11:29:25 2011 GMT
            Not After : Sep 29 11:29:25 2012 GMT
        Subject: C=DE, L=NRW, O=TU, OU=DA, CN=old
        Subject Public Key Info:
            Public Key Algorithm: rsaEncryption
                Public-Key: (1024 bit)
                Modulus:
                    00:ca:3c:a2:a4:b7:b9:d9:35:ad:52:cf:ab:78:0e:
                    3b:96:58:08:43:6c:32:6f:16:d6:0a:7f:08:95:17:
                    69:4d:2a:4b:e5:79:1c:34:a6:80:0d:c1:00:23:d0:
                    60:fc:52:f5:d3:a8:a6:48:b1:ca:10:16:a7:76:54:
                    10:03:31:e4:4b:1d:c1:5d:84:36:60:d3:a3:d8:5d:
                    cc:b3:8a:57:b2:4a:f2:bf:dc:69:c2:3e:d5:9e:c5:
                    b8:84:9a:56:f5:8d:5a:46:91:49:f5:d2:f3:35:38:
                    84:61:a0:c8:2d:f4:36:09:c0:06:7a:d6:c2:be:40:
                    6a:26:e0:91:80:38:7e:77:4f
                Exponent: 65537 (0x10001)
        X509v3 extensions:
            Netscape Cert Type: 
                SSL Client
            X509v3 Key Usage: 
                Digital Signature, Non Repudiation, Key Encipherment, Data Encipherment
    Signature Algorithm: md5WithRSAEncryption
        23:af:10:a9:e4:f3:30:de:d5:fe:42:10:91:c4:98:70:c5:10:
        42:a5:f3:40:c3:63:56:75:c3:ee:87:0f:dc:87:cd:12:5a:54:
        f8:06:c1:22:60:a3:96:8a:e1:08:8e:f7:a0:7b:74:b3:da:06:
        99:a8:1e:33:f3:82:ee:1b:1a:0e:42:97:ba:dc:e1:7a:91:28:
        77:cc:f7:94:90:60:5e:93:b8:93:5c:82:5c:c9:12:b4:71:21:
        c8:4f:f3:c6:4e:01:ff:f4:ad:36:65:c1:52:bb:14:e1:19:73:
        31:47:d4:94:3a:17:61:c2:41:a0:40:d3:53:eb:41:72:12:3f:
        36:4f:5d:a5:52:1a:8c:3f:02:bd:f6:3f:37:07:2e:5b:2b:f2:
        4a:49:f2:ca:a9:bb:c1:f5:e7:70:e0:60:bb:88:45:a3:95:b5:
        d0:8c:16:b6:a0:d6:17:ed:3a:07:7b:35:96:f9:d3:3c:db:b1:
        25:a9:96:4e:cc:dd:98:93:a9:67:86:78:a1:28:d9:4c:26:bb:
        ac:2d:f7:17:ec:28:b7:7b:ee:25:17:31:90:93:66:07:72:01:
        9a:52:af:c8:95:0b:9e:c6:c6:29:26:0f:d8:a7:a1:12:36:76:
        6f:5e:f5:a3:f9:3e:4d:b8:56:3a:9d:e2:bf:d8:e2:04:9a:f4:
        63:f5:bb:9c
-----BEGIN CERTIFICATE-----
MIICozCCAYugAwIBAgIBAzANBgkqhkiG9w0BAQQFADBHMQswCQYDVQQGEwJERTEM
MAoGA1UEBxMDTlJXMQswCQYDVQQKEwJUVTELMAkGA1UECxMCREExEDAOBgNVBAMT
B2NhIGNlcnQwHhcNMTEwOTMwMTEyOTI1WhcNMTIwOTI5MTEyOTI1WjBDMQswCQYD
VQQGEwJERTEMMAoGA1UEBxMDTlJXMQswCQYDVQQKEwJUVTELMAkGA1UECxMCREEx
DDAKBgNVBAMTA29sZDCBnzANBgkqhkiG9w0BAQEFAAOBjQAwgYkCgYEAyjyipLe5
2TWtUs+reA47llgIQ2wybxbWCn8IlRdpTSpL5XkcNKaADcEAI9Bg/FL106imSLHK
EBandlQQAzHkSx3BXYQ2YNOj2F3Ms4pXskryv9xpwj7VnsW4hJpW9Y1aRpFJ9dLz
NTiEYaDILfQ2CcAGetbCvkBqJuCRgDh+d08CAwEAAaMiMCAwEQYJYIZIAYb4QgEB
BAQDAgeAMAsGA1UdDwQEAwIE8DANBgkqhkiG9w0BAQQFAAOCAQEAI68QqeTzMN7V
/kIQkcSYcMUQQqXzQMNjVnXD7ocP3IfNElpU+AbBImCjlorhCI73oHt0s9oGmage
M/OC7hsaDkKXutzhepEod8z3lJBgXpO4k1yCXMkStHEhyE/zxk4B//StNmXBUrsU
4RlzMUfUlDoXYcJBoEDTU+tBchI/Nk9dpVIajD8CvfY/NwcuWyvySknyyqm7wfXn
cOBgu4hFo5W10IwWtqDWF+06B3s1lvnTPNuxJamWTszdmJOpZ4Z4oSjZTCa7rC33
F+wot3vuJRcxkJNmB3IBmlKvyJULnsbGKSYP2KehEjZ2b171o/k+TbhWOp3iv9ji
BJr0Y/W7nA==
-----END CERTIFICATE-----
