Certificate:
    Data:
        Version: 3 (0x2)
        Serial Number: 4 (0x4)
        Signature Algorithm: md5WithRSAEncryption
        Issuer: C=DE, L=NRW, O=TU, OU=DA, CN=ca cert
        Validity
            Not Before: Oct 19 12:25:45 2011 GMT
            Not After : Oct 18 12:25:45 2012 GMT
        Subject: C=DE, L=NRW, O=TU, OU=DA, CN=old gateway
        Subject Public Key Info:
            Public Key Algorithm: rsaEncryption
                Public-Key: (1024 bit)
                Modulus:
                    00:b6:59:9d:59:23:a3:75:05:1b:51:ff:59:3e:fb:
                    34:67:59:b2:cc:a1:17:b3:d4:48:7d:07:ef:ec:2a:
                    84:79:e3:8d:8f:35:37:48:4d:c9:ae:b0:b5:30:aa:
                    dd:a3:6e:af:50:e8:f4:98:f9:65:2f:f2:28:7d:bb:
                    c1:5e:98:4b:68:2d:07:3b:5e:de:2f:19:ca:19:54:
                    a2:2d:6e:b4:6d:cb:10:44:d5:1a:60:d0:83:8c:9d:
                    cc:00:f0:3d:dc:d8:1a:20:ee:68:3a:2b:4a:bd:7f:
                    0a:41:b0:7d:71:3e:2f:f1:ae:76:e6:d7:45:bb:11:
                    f3:c0:a8:a6:40:67:42:fe:c7
                Exponent: 65537 (0x10001)
        X509v3 extensions:
            Netscape Cert Type: 
                SSL Server
            Netscape Comment: 
                gateway:true
            X509v3 Key Usage: 
                Digital Signature, Non Repudiation, Key Encipherment
            X509v3 Extended Key Usage: 
                Microsoft Server Gated Crypto, Netscape Server Gated Crypto, TLS Web Server Authentication
    Signature Algorithm: md5WithRSAEncryption
        81:35:bb:c3:43:aa:44:c9:9c:76:17:d1:3f:a2:44:be:2c:04:
        17:f5:eb:7f:77:a2:31:9a:a5:3d:5b:e7:43:c2:06:80:ee:17:
        a5:96:6f:5c:2a:7d:65:36:b1:cd:0a:26:eb:f5:fd:57:0b:d9:
        64:7c:cf:9d:95:29:df:91:dc:3a:be:ad:2c:77:9c:0d:62:87:
        23:e1:b8:57:71:de:b3:0a:64:e4:b8:0c:79:7a:d5:94:f3:8b:
        23:1d:36:70:e2:41:3e:fd:47:ee:b5:6b:b9:1f:eb:ca:0f:bc:
        fd:70:9b:76:8c:b7:8e:eb:73:e3:11:df:f9:34:59:dd:12:86:
        57:9a:dc:9c:a5:0b:2e:88:6b:64:f4:b2:92:87:eb:54:bd:95:
        03:0f:5c:bf:dc:35:d5:68:3b:95:ac:36:f3:b5:f6:9e:ba:98:
        65:d6:4a:0c:19:ae:65:a4:81:ea:02:f3:69:8a:60:fa:6e:0e:
        83:6c:2f:52:1a:14:32:1b:88:9a:04:76:ec:29:ac:35:f3:d0:
        fe:2a:95:cc:d8:65:9d:f9:6b:bc:d3:5e:1b:60:f6:11:8a:53:
        78:d2:bf:e4:a8:b9:03:5b:5e:ba:1f:de:bd:12:d7:b8:26:10:
        5d:3f:05:28:8a:26:01:8b:5f:ff:72:84:b9:35:48:30:bf:15:
        46:f4:fe:73
-----BEGIN CERTIFICATE-----
MIIC9DCCAdygAwIBAgIBBDANBgkqhkiG9w0BAQQFADBHMQswCQYDVQQGEwJERTEM
MAoGA1UEBxMDTlJXMQswCQYDVQQKEwJUVTELMAkGA1UECxMCREExEDAOBgNVBAMT
B2NhIGNlcnQwHhcNMTExMDE5MTIyNTQ1WhcNMTIxMDE4MTIyNTQ1WjBLMQswCQYD
VQQGEwJERTEMMAoGA1UEBxMDTlJXMQswCQYDVQQKEwJUVTELMAkGA1UECxMCREEx
FDASBgNVBAMTC29sZCBnYXRld2F5MIGfMA0GCSqGSIb3DQEBAQUAA4GNADCBiQKB
gQC2WZ1ZI6N1BRtR/1k++zRnWbLMoRez1Eh9B+/sKoR5442PNTdITcmusLUwqt2j
bq9Q6PSY+WUv8ih9u8FemEtoLQc7Xt4vGcoZVKItbrRtyxBE1Rpg0IOMncwA8D3c
2Bog7mg6K0q9fwpBsH1xPi/xrnbm10W7EfPAqKZAZ0L+xwIDAQABo2swaTARBglg
hkgBhvhCAQEEBAMCBkAwGwYJYIZIAYb4QgENBA4WDGdhdGV3YXk6dHJ1ZTALBgNV
HQ8EBAMCBeAwKgYDVR0lBCMwIQYKKwYBBAGCNwoDAwYJYIZIAYb4QgQBBggrBgEF
BQcDATANBgkqhkiG9w0BAQQFAAOCAQEAgTW7w0OqRMmcdhfRP6JEviwEF/Xrf3ei
MZqlPVvnQ8IGgO4XpZZvXCp9ZTaxzQom6/X9VwvZZHzPnZUp35HcOr6tLHecDWKH
I+G4V3Heswpk5LgMeXrVlPOLIx02cOJBPv1H7rVruR/ryg+8/XCbdoy3jutz4xHf
+TRZ3RKGV5rcnKULLohrZPSykofrVL2VAw9cv9w11Wg7law287X2nrqYZdZKDBmu
ZaSB6gLzaYpg+m4Og2wvUhoUMhuImgR27CmsNfPQ/iqVzNhlnflrvNNeG2D2EYpT
eNK/5Ki5A1teuh/evRLXuCYQXT8FKIomAYtf/3KEuTVIML8VRvT+cw==
-----END CERTIFICATE-----
