Certificate:
    Data:
        Version: 3 (0x2)
        Serial Number: 8 (0x8)
        Signature Algorithm: md5WithRSAEncryption
        Issuer: C=DE, L=NRW, O=TU, OU=DA, CN=ca cert
        Validity
            Not Before: Nov 11 14:51:32 2011 GMT
            Not After : Nov 10 14:51:32 2012 GMT
        Subject: C=DE, L=NRW, O=TU, OU=DA, CN=KDC
        Subject Public Key Info:
            Public Key Algorithm: rsaEncryption
                Public-Key: (1024 bit)
                Modulus:
                    00:cb:53:ac:0f:be:5c:e2:90:eb:16:e1:ba:d9:e2:
                    d1:e1:9a:94:1b:da:3e:85:59:2d:41:92:51:80:fc:
                    d0:51:05:38:33:df:7b:84:c8:dd:7a:59:91:40:34:
                    2d:bc:d2:e0:99:0a:cc:ab:37:c6:01:f0:ec:3e:8a:
                    31:6b:b8:44:de:c6:c0:46:d9:de:ff:21:e0:e8:b5:
                    0f:5a:8d:da:00:a8:32:09:2b:2d:a3:ce:d3:2d:41:
                    ce:9d:a6:c4:3a:d3:fa:a0:9d:67:52:2d:cf:43:15:
                    fa:b0:ea:fd:1e:89:47:8b:1d:25:1b:35:e1:20:11:
                    38:ea:d8:67:e2:5c:e3:42:85
                Exponent: 65537 (0x10001)
        X509v3 extensions:
            Netscape Cert Type: 
                SSL Client
            Netscape Comment: 
                kdc:true
            X509v3 Key Usage: 
                Digital Signature, Non Repudiation, Key Encipherment, Data Encipherment
    Signature Algorithm: md5WithRSAEncryption
        ac:f3:ab:ba:f0:8c:c9:e6:3c:a3:c1:68:ce:3b:e8:8e:b0:f0:
        80:d7:cd:06:bc:a4:85:e7:09:37:49:15:43:13:64:89:b8:bc:
        2f:e4:f2:35:c2:1b:fd:98:94:8d:60:dc:c8:4d:ba:ca:c8:7d:
        4b:7d:fb:c9:d3:fd:2a:6c:21:e8:72:0a:e7:03:42:58:92:f0:
        dc:d2:04:ce:82:ba:c5:9a:e9:3e:ed:fb:ec:78:6e:9c:07:53:
        2d:8e:32:c8:a5:5f:8a:6c:eb:09:8b:42:dd:7e:eb:87:25:0e:
        e4:21:8c:5b:c3:9f:9a:55:6c:e8:91:75:1b:29:5b:f3:c7:3f:
        2b:49:c3:91:99:f8:99:09:9e:f9:53:d7:91:37:57:31:7d:0e:
        dc:0d:fa:6d:27:50:a0:df:b1:ba:4e:25:d2:a1:ff:67:de:9c:
        eb:6c:ac:d3:59:a1:46:ae:6b:ff:1c:9a:24:b4:2a:7c:18:06:
        d0:51:76:32:d5:fb:cc:7f:0c:38:d5:40:0e:8b:54:ee:82:e1:
        c5:b1:92:99:2d:b7:de:08:f5:03:80:62:e4:64:95:5c:64:4d:
        4a:60:07:28:4c:9c:01:ee:e8:22:37:0a:ed:e2:f5:43:b5:5b:
        af:26:15:b8:90:b6:0b:c7:49:5e:81:9a:7d:fe:3b:17:f7:3e:
        21:a0:8f:48
-----BEGIN CERTIFICATE-----
MIICvDCCAaSgAwIBAgIBCDANBgkqhkiG9w0BAQQFADBHMQswCQYDVQQGEwJERTEM
MAoGA1UEBxMDTlJXMQswCQYDVQQKEwJUVTELMAkGA1UECxMCREExEDAOBgNVBAMT
B2NhIGNlcnQwHhcNMTExMTExMTQ1MTMyWhcNMTIxMTEwMTQ1MTMyWjBDMQswCQYD
VQQGEwJERTEMMAoGA1UEBxMDTlJXMQswCQYDVQQKEwJUVTELMAkGA1UECxMCREEx
DDAKBgNVBAMTA0tEQzCBnzANBgkqhkiG9w0BAQEFAAOBjQAwgYkCgYEAy1OsD75c
4pDrFuG62eLR4ZqUG9o+hVktQZJRgPzQUQU4M997hMjdelmRQDQtvNLgmQrMqzfG
AfDsPooxa7hE3sbARtne/yHg6LUPWo3aAKgyCSsto87TLUHOnabEOtP6oJ1nUi3P
QxX6sOr9HolHix0lGzXhIBE46thn4lzjQoUCAwEAAaM7MDkwEQYJYIZIAYb4QgEB
BAQDAgeAMBcGCWCGSAGG+EIBDQQKFghrZGM6dHJ1ZTALBgNVHQ8EBAMCBPAwDQYJ
KoZIhvcNAQEEBQADggEBAKzzq7rwjMnmPKPBaM476I6w8IDXzQa8pIXnCTdJFUMT
ZIm4vC/k8jXCG/2YlI1g3MhNusrIfUt9+8nT/SpsIehyCucDQliS8NzSBM6CusWa
6T7t++x4bpwHUy2OMsilX4ps6wmLQt1+64clDuQhjFvDn5pVbOiRdRspW/PHPytJ
w5GZ+JkJnvlT15E3VzF9DtwN+m0nUKDfsbpOJdKh/2fenOtsrNNZoUaua/8cmiS0
KnwYBtBRdjLV+8x/DDjVQA6LVO6C4cWxkpktt94I9QOAYuRklVxkTUpgByhMnAHu
6CI3Cu3i9UO1W68mFbiQtgvHSV6Bmn3+Oxf3PiGgj0g=
-----END CERTIFICATE-----
