Certificate:
    Data:
        Version: 3 (0x2)
        Serial Number: 2 (0x2)
        Signature Algorithm: md5WithRSAEncryption
        Issuer: C=DE, L=NRW, O=TU, OU=DA, CN=ca cert
        Validity
            Not Before: Sep 30 11:27:26 2011 GMT
            Not After : Sep 29 11:27:26 2012 GMT
        Subject: C=DE, L=NRW, O=TU, OU=DA, CN=gateway
        Subject Public Key Info:
            Public Key Algorithm: rsaEncryption
                Public-Key: (1024 bit)
                Modulus:
                    00:9b:03:4c:45:9c:74:67:d7:58:6e:32:71:28:f4:
                    8f:a8:2f:03:be:10:62:ea:0e:85:4d:b8:4a:6e:fc:
                    b0:cf:68:85:ef:06:38:53:97:31:12:a7:c8:44:3e:
                    2c:85:0b:77:6e:12:77:2d:45:db:18:a2:2b:3b:97:
                    52:27:03:72:cd:2c:7d:66:d2:5e:96:c7:ff:e5:45:
                    9d:4d:26:86:9a:de:61:df:b0:ad:66:3b:92:90:8d:
                    7c:a1:fc:a1:5b:0d:7b:0a:6b:bc:32:c2:d6:17:01:
                    ba:e1:8b:a1:df:b8:1d:7a:e6:2a:80:17:8b:d5:ed:
                    07:38:87:0e:77:f4:b7:14:1f
                Exponent: 65537 (0x10001)
        X509v3 extensions:
            Netscape Cert Type: 
                SSL Server
            Netscape Comment: 
                gateway:true
            X509v3 Key Usage: 
                Digital Signature, Non Repudiation, Key Encipherment
            X509v3 Extended Key Usage: 
                Microsoft Server Gated Crypto, Netscape Server Gated Crypto, TLS Web Server Authentication
    Signature Algorithm: md5WithRSAEncryption
        28:4a:a5:17:f6:5f:5c:ce:2b:f5:b5:f8:41:0d:ae:20:56:19:
        b6:a7:f5:aa:03:99:22:f2:1c:32:5e:37:0f:76:01:8f:c8:f6:
        8e:0a:ae:6e:da:cc:fc:bd:83:30:06:f2:46:23:02:56:05:4c:
        08:5d:95:a0:8c:18:62:df:5c:48:94:a9:47:5d:06:89:0a:3c:
        82:3b:76:55:3b:c1:92:f7:e8:f6:94:11:0a:67:29:9d:ef:ef:
        78:cb:f3:b6:33:3e:f3:22:c8:f6:77:1d:19:8c:e3:f9:d3:a2:
        ff:fd:7f:0c:89:ed:29:a3:6e:88:db:de:79:25:41:5a:a7:9f:
        3e:c3:0c:c1:42:14:0d:9b:46:76:0b:e1:86:55:1a:ec:d3:16:
        5a:4c:03:a6:2c:db:50:80:74:dc:83:da:89:7b:57:04:b5:1e:
        9a:5a:52:b2:c5:1e:09:c2:ee:92:9f:f2:0d:a9:ed:62:a9:83:
        e0:57:8d:d2:1c:51:84:b8:69:3b:16:31:a3:17:b7:35:11:31:
        b7:ae:f3:8a:f4:61:19:86:96:e4:a9:ed:b0:e7:b6:74:6d:7f:
        53:46:74:9a:34:20:a9:9b:42:ad:5e:1c:11:ac:35:27:6b:4b:
        07:d0:39:91:0c:79:2d:73:17:b6:2a:30:38:49:7f:66:9b:9a:
        06:73:c3:fa
-----BEGIN CERTIFICATE-----
MIIC8DCCAdigAwIBAgIBAjANBgkqhkiG9w0BAQQFADBHMQswCQYDVQQGEwJERTEM
MAoGA1UEBxMDTlJXMQswCQYDVQQKEwJUVTELMAkGA1UECxMCREExEDAOBgNVBAMT
B2NhIGNlcnQwHhcNMTEwOTMwMTEyNzI2WhcNMTIwOTI5MTEyNzI2WjBHMQswCQYD
VQQGEwJERTEMMAoGA1UEBxMDTlJXMQswCQYDVQQKEwJUVTELMAkGA1UECxMCREEx
EDAOBgNVBAMTB2dhdGV3YXkwgZ8wDQYJKoZIhvcNAQEBBQADgY0AMIGJAoGBAJsD
TEWcdGfXWG4ycSj0j6gvA74QYuoOhU24Sm78sM9ohe8GOFOXMRKnyEQ+LIULd24S
dy1F2xiiKzuXUicDcs0sfWbSXpbH/+VFnU0mhpreYd+wrWY7kpCNfKH8oVsNewpr
vDLC1hcBuuGLod+4HXrmKoAXi9XtBziHDnf0txQfAgMBAAGjazBpMBEGCWCGSAGG
+EIBAQQEAwIGQDAbBglghkgBhvhCAQ0EDhYMZ2F0ZXdheTp0cnVlMAsGA1UdDwQE
AwIF4DAqBgNVHSUEIzAhBgorBgEEAYI3CgMDBglghkgBhvhCBAEGCCsGAQUFBwMB
MA0GCSqGSIb3DQEBBAUAA4IBAQAoSqUX9l9cziv1tfhBDa4gVhm2p/WqA5ki8hwy
XjcPdgGPyPaOCq5u2sz8vYMwBvJGIwJWBUwIXZWgjBhi31xIlKlHXQaJCjyCO3ZV
O8GS9+j2lBEKZymd7+94y/O2Mz7zIsj2dx0ZjOP506L//X8Mie0po26I2955JUFa
p58+wwzBQhQNm0Z2C+GGVRrs0xZaTAOmLNtQgHTcg9qJe1cEtR6aWlKyxR4Jwu6S
n/INqe1iqYPgV43SHFGEuGk7FjGjF7c1ETG3rvOK9GEZhpbkqe2w57Z0bX9TRnSa
NCCpm0KtXhwRrDUna0sH0DmRDHktcxe2KjA4SX9mm5oGc8P6
-----END CERTIFICATE-----
