Certificate:
    Data:
        Version: 3 (0x2)
        Serial Number: 1 (0x1)
        Signature Algorithm: md5WithRSAEncryption
        Issuer: C=DE, L=NRW, O=TU, OU=DA, CN=ca cert
        Validity
            Not Before: Sep 30 11:25:40 2011 GMT
            Not After : Sep 29 11:25:40 2012 GMT
        Subject: C=DE, L=NRW, O=TU, OU=DA, CN=router
        Subject Public Key Info:
            Public Key Algorithm: rsaEncryption
                Public-Key: (1024 bit)
                Modulus:
                    00:a2:f5:9a:64:c9:13:44:14:0c:69:67:c0:e4:7d:
                    3f:19:52:55:8e:a9:0a:61:46:93:f2:3f:34:28:55:
                    bb:71:8a:be:d9:d2:b6:b4:44:1d:2b:67:c2:68:a0:
                    4b:12:7b:2b:65:67:01:a4:a3:d0:cd:e2:b3:92:55:
                    0d:96:41:33:34:cc:e3:f7:84:8e:1f:6d:07:34:52:
                    cc:9b:50:e6:77:d6:3f:42:33:5b:6a:c7:a0:47:20:
                    55:0e:43:93:dd:4e:c2:eb:ed:d6:14:35:82:d0:ae:
                    15:2a:98:ba:82:49:c9:6e:92:37:4b:8f:3e:1a:02:
                    8b:35:f9:d2:5a:39:54:e5:07
                Exponent: 65537 (0x10001)
        X509v3 extensions:
            Netscape Cert Type: 
                SSL Client
            X509v3 Key Usage: 
                Digital Signature, Non Repudiation, Key Encipherment, Data Encipherment
    Signature Algorithm: md5WithRSAEncryption
        6f:de:98:b1:52:6b:72:40:5d:3b:ba:ba:c2:fe:7a:79:42:28:
        71:42:8f:cb:b6:bf:c0:81:bb:e4:4a:ee:42:80:7e:d4:be:89:
        65:49:f8:71:6e:db:d1:6d:db:53:55:57:27:a9:25:5d:d7:bf:
        4a:22:e8:00:5e:8b:c0:0f:d3:24:1b:97:43:f7:7c:a6:82:83:
        c6:27:02:8f:17:f7:86:c5:20:dd:eb:e4:72:15:42:ed:ea:21:
        a1:db:ff:5c:bb:bd:d5:a2:64:c3:ca:6b:e1:1e:f6:8b:3f:4b:
        e9:ea:41:21:76:1a:e9:79:68:5a:2d:c8:4b:e3:7e:f5:d3:7e:
        b4:b1:98:df:e1:b7:bb:85:f5:86:0a:6b:80:69:de:f7:98:ff:
        ea:9c:d8:a2:5e:c7:8b:7a:38:87:c7:74:54:f5:87:c7:17:2a:
        e5:a3:3a:8e:7a:f8:08:39:85:2d:d8:47:f7:8e:1e:1c:b4:45:
        21:82:b0:95:fe:77:32:90:08:ca:9b:38:f8:47:ae:a4:b9:0a:
        ec:b0:77:54:bf:6c:75:77:d1:f7:e2:37:bd:0f:3d:d2:d4:15:
        71:36:c6:fd:3d:98:31:31:e9:b9:1f:c1:92:62:b0:a4:3e:df:
        05:72:42:63:f5:8c:5a:ad:67:3f:a8:74:98:ad:34:d9:b5:98:
        97:87:c2:35
-----BEGIN CERTIFICATE-----
MIICpjCCAY6gAwIBAgIBATANBgkqhkiG9w0BAQQFADBHMQswCQYDVQQGEwJERTEM
MAoGA1UEBxMDTlJXMQswCQYDVQQKEwJUVTELMAkGA1UECxMCREExEDAOBgNVBAMT
B2NhIGNlcnQwHhcNMTEwOTMwMTEyNTQwWhcNMTIwOTI5MTEyNTQwWjBGMQswCQYD
VQQGEwJERTEMMAoGA1UEBxMDTlJXMQswCQYDVQQKEwJUVTELMAkGA1UECxMCREEx
DzANBgNVBAMTBnJvdXRlcjCBnzANBgkqhkiG9w0BAQEFAAOBjQAwgYkCgYEAovWa
ZMkTRBQMaWfA5H0/GVJVjqkKYUaT8j80KFW7cYq+2dK2tEQdK2fCaKBLEnsrZWcB
pKPQzeKzklUNlkEzNMzj94SOH20HNFLMm1Dmd9Y/QjNbasegRyBVDkOT3U7C6+3W
FDWC0K4VKpi6gknJbpI3S48+GgKLNfnSWjlU5QcCAwEAAaMiMCAwEQYJYIZIAYb4
QgEBBAQDAgeAMAsGA1UdDwQEAwIE8DANBgkqhkiG9w0BAQQFAAOCAQEAb96YsVJr
ckBdO7q6wv56eUIocUKPy7a/wIG75EruQoB+1L6JZUn4cW7b0W3bU1VXJ6klXde/
SiLoAF6LwA/TJBuXQ/d8poKDxicCjxf3hsUg3evkchVC7eohodv/XLu91aJkw8pr
4R72iz9L6epBIXYa6XloWi3IS+N+9dN+tLGY3+G3u4X1hgprgGne95j/6pzYol7H
i3o4h8d0VPWHxxcq5aM6jnr4CDmFLdhH944eHLRFIYKwlf53MpAIyps4+EeupLkK
7LB3VL9sdXfR9+I3vQ890tQVcTbG/T2YMTHpuR/BkmKwpD7fBXJCY/WMWq1nP6h0
mK002bWYl4fCNQ==
-----END CERTIFICATE-----
