Certificate:
    Data:
        Version: 3 (0x2)
        Serial Number: 6 (0x6)
        Signature Algorithm: md5WithRSAEncryption
        Issuer: C=DE, L=NRW, O=TU, OU=DA, CN=ca cert
        Validity
            Not Before: Nov 11 09:36:01 2011 GMT
            Not After : Nov 10 09:36:01 2012 GMT
        Subject: C=DE, L=NRW, O=TU, OU=DA, CN=tester
        Subject Public Key Info:
            Public Key Algorithm: rsaEncryption
                Public-Key: (1024 bit)
                Modulus:
                    00:ad:c7:16:62:ef:a4:f6:b1:02:8c:1b:9f:45:14:
                    79:6d:19:83:3e:0d:97:11:f0:26:9d:65:a7:86:71:
                    6e:ed:80:ea:a0:29:9e:23:4d:8b:03:b7:3f:d3:0f:
                    e6:78:aa:30:02:d9:59:7e:7a:9e:f3:a9:1f:98:d5:
                    33:c3:ed:15:33:93:1d:fa:79:b0:8c:bb:77:9c:26:
                    de:3d:bd:3e:bc:1d:34:db:09:91:20:ef:6e:1a:88:
                    1e:2d:a7:a4:c0:22:c7:98:a7:0d:74:c0:59:56:96:
                    89:47:42:44:98:58:bc:8d:27:6a:a3:bc:44:dc:dd:
                    da:76:7f:3f:92:6d:5b:a7:ab
                Exponent: 65537 (0x10001)
        X509v3 extensions:
            Netscape Cert Type: 
                SSL Client
            X509v3 Key Usage: 
                Digital Signature, Non Repudiation, Key Encipherment, Data Encipherment
    Signature Algorithm: md5WithRSAEncryption
        a5:72:a0:42:d7:94:ff:09:df:44:22:75:43:27:29:ca:5a:a5:
        dc:43:37:4d:2a:a2:98:90:2e:26:0f:26:86:66:1c:d8:df:f6:
        84:e1:14:51:6d:9c:00:58:a3:6e:80:cd:b1:89:3c:97:1f:c4:
        a4:06:96:e5:37:22:37:2d:28:cc:4d:98:c8:ae:1d:31:4e:02:
        60:d9:8f:0f:fc:15:83:0f:a0:8f:24:5c:a1:03:30:2a:51:a8:
        dc:8b:d7:9c:b8:7e:5e:90:19:33:44:0d:82:46:9b:ea:11:f8:
        95:3f:69:8d:7a:83:88:aa:6d:80:8a:55:2f:a0:03:0c:62:b6:
        16:11:3d:24:53:98:19:0f:10:7c:92:1e:f8:d7:b2:ec:d6:1b:
        80:38:92:ec:43:2d:cb:77:ec:3c:bd:74:92:98:8a:22:94:7b:
        26:1e:e9:12:71:e6:00:40:92:bf:f4:8d:3d:82:a6:20:93:3d:
        07:44:1b:42:54:9c:b5:70:2a:db:37:a8:c7:3e:8b:16:d4:7b:
        ea:51:c0:39:ea:91:1d:9b:c3:7f:36:15:6a:6d:5f:12:63:fb:
        f6:14:7f:69:c9:75:42:ee:74:e8:90:8e:de:2b:46:50:c3:6a:
        d0:01:f1:a6:58:2a:56:e1:ae:b5:17:10:6a:04:75:88:80:4b:
        d3:b2:7a:a3
-----BEGIN CERTIFICATE-----
MIICpjCCAY6gAwIBAgIBBjANBgkqhkiG9w0BAQQFADBHMQswCQYDVQQGEwJERTEM
MAoGA1UEBxMDTlJXMQswCQYDVQQKEwJUVTELMAkGA1UECxMCREExEDAOBgNVBAMT
B2NhIGNlcnQwHhcNMTExMTExMDkzNjAxWhcNMTIxMTEwMDkzNjAxWjBGMQswCQYD
VQQGEwJERTEMMAoGA1UEBxMDTlJXMQswCQYDVQQKEwJUVTELMAkGA1UECxMCREEx
DzANBgNVBAMTBnRlc3RlcjCBnzANBgkqhkiG9w0BAQEFAAOBjQAwgYkCgYEArccW
Yu+k9rECjBufRRR5bRmDPg2XEfAmnWWnhnFu7YDqoCmeI02LA7c/0w/meKowAtlZ
fnqe86kfmNUzw+0VM5Md+nmwjLt3nCbePb0+vB002wmRIO9uGogeLaekwCLHmKcN
dMBZVpaJR0JEmFi8jSdqo7xE3N3adn8/km1bp6sCAwEAAaMiMCAwEQYJYIZIAYb4
QgEBBAQDAgeAMAsGA1UdDwQEAwIE8DANBgkqhkiG9w0BAQQFAAOCAQEApXKgQteU
/wnfRCJ1Qycpylql3EM3TSqimJAuJg8mhmYc2N/2hOEUUW2cAFijboDNsYk8lx/E
pAaW5TciNy0ozE2YyK4dMU4CYNmPD/wVgw+gjyRcoQMwKlGo3IvXnLh+XpAZM0QN
gkab6hH4lT9pjXqDiKptgIpVL6ADDGK2FhE9JFOYGQ8QfJIe+Ney7NYbgDiS7EMt
y3fsPL10kpiKIpR7Jh7pEnHmAECSv/SNPYKmIJM9B0QbQlSctXAq2zeoxz6LFtR7
6lHAOeqRHZvDfzYVam1fEmP79hR/acl1Qu506JCO3itGUMNq0AHxplgqVuGutRcQ
agR1iIBL07J6ow==
-----END CERTIFICATE-----
