Certificate:
    Data:
        Version: 3 (0x2)
        Serial Number: 7 (0x7)
        Signature Algorithm: md5WithRSAEncryption
        Issuer: C=DE, L=NRW, O=TU, OU=DA, CN=ca cert
        Validity
            Not Before: Nov 11 09:54:00 2011 GMT
            Not After : Nov 10 09:54:00 2012 GMT
        Subject: C=DE, L=NRW, O=TU, OU=DA, CN=10.0.0.2
        Subject Public Key Info:
            Public Key Algorithm: rsaEncryption
                Public-Key: (1024 bit)
                Modulus:
                    00:ac:25:0b:a5:2e:06:3a:dd:23:e7:f4:5f:d6:bf:
                    81:4b:15:8d:95:bd:af:6b:41:6e:0e:99:4c:d2:f5:
                    c8:04:a2:83:88:48:11:ac:86:fc:15:40:2c:46:24:
                    ad:67:3b:80:63:e4:a8:1a:85:d8:39:26:3c:1f:78:
                    59:96:f8:4e:30:dd:5e:04:1c:be:e4:a6:67:4e:55:
                    fa:2a:cd:50:33:8e:a9:20:c9:6d:41:ba:52:ff:90:
                    05:a4:b9:c0:f7:e1:6e:3b:05:90:e2:af:f7:99:d4:
                    19:ed:de:23:eb:b6:3a:36:c2:c5:f6:f2:b9:67:f7:
                    3a:6e:8e:d6:32:f9:6f:b5:2b
                Exponent: 65537 (0x10001)
        X509v3 extensions:
            Netscape Cert Type: 
                SSL Client
            X509v3 Subject Alternative Name: 
                IP Address:10.0.0.2
            X509v3 Key Usage: 
                Digital Signature, Non Repudiation, Key Encipherment, Data Encipherment
    Signature Algorithm: md5WithRSAEncryption
        07:78:e4:bc:a9:c9:13:7b:49:de:ec:d0:3f:dd:9f:bc:2a:a2:
        45:03:0e:07:49:ae:cc:7d:ac:7a:11:e6:af:33:ac:ff:d8:cb:
        06:7e:25:c1:92:00:f1:65:33:14:30:b9:ce:fe:2c:38:98:55:
        dc:45:78:eb:83:ee:e7:f7:7f:3c:c0:7b:0f:4b:7d:ff:11:ee:
        ee:d3:b5:50:7e:1f:69:05:9c:3e:ef:8a:5f:e9:27:d4:07:56:
        1f:ea:09:de:d3:a4:d8:a7:c2:cb:60:f2:a0:e1:dc:eb:05:d5:
        39:d6:b7:0f:26:8f:7f:03:83:c5:aa:79:97:40:ff:8b:a3:ee:
        c2:67:5a:38:e4:b6:19:f1:bb:fe:cd:fd:29:6b:58:ab:7e:08:
        f0:b7:07:8f:7d:88:81:c7:54:1a:02:d1:67:a1:ae:71:e8:76:
        f8:31:9b:99:fd:4a:ae:3c:ff:09:19:5e:77:75:21:fd:84:0c:
        1e:da:e9:67:86:7b:c7:0f:8b:95:00:ca:b7:47:40:c1:2d:da:
        30:53:06:b0:11:cc:cd:20:4a:64:ed:e2:c2:e0:e7:3b:33:14:
        a6:72:54:2a:2c:6a:f7:e6:24:2c:8b:2f:36:ba:c2:e1:26:54:
        7c:5f:c2:4c:af:81:5b:51:c7:00:f8:16:b3:20:cd:47:f1:6a:
        96:77:1c:01
-----BEGIN CERTIFICATE-----
MIICuTCCAaGgAwIBAgIBBzANBgkqhkiG9w0BAQQFADBHMQswCQYDVQQGEwJERTEM
MAoGA1UEBxMDTlJXMQswCQYDVQQKEwJUVTELMAkGA1UECxMCREExEDAOBgNVBAMT
B2NhIGNlcnQwHhcNMTExMTExMDk1NDAwWhcNMTIxMTEwMDk1NDAwWjBIMQswCQYD
VQQGEwJERTEMMAoGA1UEBxMDTlJXMQswCQYDVQQKEwJUVTELMAkGA1UECxMCREEx
ETAPBgNVBAMTCDEwLjAuMC4yMIGfMA0GCSqGSIb3DQEBAQUAA4GNADCBiQKBgQCs
JQulLgY63SPn9F/Wv4FLFY2Vva9rQW4OmUzS9cgEooOISBGshvwVQCxGJK1nO4Bj
5Kgahdg5JjwfeFmW+E4w3V4EHL7kpmdOVfoqzVAzjqkgyW1BulL/kAWkucD34W47
BZDir/eZ1Bnt3iPrtjo2wsX28rln9zpujtYy+W+1KwIDAQABozMwMTARBglghkgB
hvhCAQEEBAMCB4AwDwYDVR0RBAgwBocECgAAAjALBgNVHQ8EBAMCBPAwDQYJKoZI
hvcNAQEEBQADggEBAAd45LypyRN7Sd7s0D/dn7wqokUDDgdJrsx9rHoR5q8zrP/Y
ywZ+JcGSAPFlMxQwuc7+LDiYVdxFeOuD7uf3fzzAew9Lff8R7u7TtVB+H2kFnD7v
il/pJ9QHVh/qCd7TpNinwstg8qDh3OsF1TnWtw8mj38Dg8WqeZdA/4uj7sJnWjjk
thnxu/7N/SlrWKt+CPC3B499iIHHVBoC0WehrnHodvgxm5n9Sq48/wkZXnd1If2E
DB7a6WeGe8cPi5UAyrdHQMEt2jBTBrARzM0gSmTt4sLg5zszFKZyVCosavfmJCyL
Lza6wuEmVHxfwkyvgVtRxwD4FrMgzUfxapZ3HAE=
-----END CERTIFICATE-----
