Certificate:
    Data:
        Version: 3 (0x2)
        Serial Number: 1 (0x1)
        Signature Algorithm: md5WithRSAEncryption
        Issuer: C=DE, L=NRW, O=TU, OU=DA, CN=eugen
        Validity
            Not Before: Jan 19 13:46:55 2012 GMT
            Not After : Jan 18 13:46:55 2013 GMT
        Subject: C=DE, L=NRW, O=TU, OU=DA, CN=gateway
        Subject Public Key Info:
            Public Key Algorithm: id-ecPublicKey
                Public-Key: (256 bit)
                pub: 
                    04:6d:fd:c4:3f:8f:9b:ef:76:8f:2c:a8:0f:8b:2c:
                    da:4b:5c:ea:96:ba:93:dc:f4:1f:4f:48:1e:d2:75:
                    f2:60:36:d6:78:ef:42:aa:2d:e3:f4:1a:31:20:5b:
                    90:66:9a:8b:38:af:e0:25:25:19:86:98:f2:61:b8:
                    25:dd:17:14:c5
                ASN1 OID: prime256v1
        X509v3 extensions:
            Netscape Cert Type: 
                SSL Server
            Netscape Comment: 
                gateway:true
            X509v3 Key Usage: 
                Digital Signature, Non Repudiation, Key Encipherment
            X509v3 Extended Key Usage: 
                Microsoft Server Gated Crypto, Netscape Server Gated Crypto, TLS Web Server Authentication
    Signature Algorithm: md5WithRSAEncryption
        93:50:c0:1a:46:02:4f:9e:db:5e:8f:3f:18:a9:cd:81:d4:a1:
        6a:da:d1:39:4f:87:2c:b7:25:65:b7:dc:26:12:2c:7f:d7:67:
        52:a5:b4:8b:2e:8e:1f:d8:21:73:04:ab:5c:b0:be:c8:0c:7f:
        93:4d:7e:24:e5:78:2d:a0:97:d2:9e:0f:35:ae:a3:fd:a1:61:
        9d:5e:85:7d:85:5a:0b:af:53:ba:d6:98:6d:f0:8f:0e:86:a8:
        d2:3c:8f:49:63:60:df:37:63:18:d2:c5:39:10:a3:0b:06:e2:
        d8:11:21:55:62:01:2f:50:34:81:0e:10:0a:22:c1:ea:cc:2f:
        8c:4c:0e:8c:85:77:d8:8d:38:d5:fd:60:d0:5b:0e:5f:fb:c1:
        39:23:9c:e5:64:77:2f:17:33:33:61:f2:5e:04:b6:9c:04:37:
        ee:cc:13:33:d6:e8:d9:fd:ab:81:ce:f9:bf:0e:21:ef:24:bd:
        40:38:a3:6d:86:44:16:79:a4:fa:d5:3b:96:2b:bf:d7:d4:90:
        73:c9:52:3c:f6:04:2b:69:59:2f:ed:c7:90:78:65:38:a1:79:
        46:7d:46:5c:01:6b:95:ba:71:96:8f:71:b8:35:95:54:bd:41:
        ed:50:45:6e:71:3d:c5:a7:5c:f8:e0:ed:f4:5b:84:1e:87:b6:
        43:8a:5c:c2
-----BEGIN CERTIFICATE-----
MIICpzCCAY+gAwIBAgIBATANBgkqhkiG9w0BAQQFADBFMQswCQYDVQQGEwJERTEM
MAoGA1UEBxMDTlJXMQswCQYDVQQKEwJUVTELMAkGA1UECxMCREExDjAMBgNVBAMT
BWV1Z2VuMB4XDTEyMDExOTEzNDY1NVoXDTEzMDExODEzNDY1NVowRzELMAkGA1UE
BhMCREUxDDAKBgNVBAcTA05SVzELMAkGA1UEChMCVFUxCzAJBgNVBAsTAkRBMRAw
DgYDVQQDEwdnYXRld2F5MFkwEwYHKoZIzj0CAQYIKoZIzj0DAQcDQgAEbf3EP4+b
73aPLKgPiyzaS1zqlrqT3PQfT0ge0nXyYDbWeO9Cqi3j9BoxIFuQZpqLOK/gJSUZ
hpjyYbgl3RcUxaNrMGkwEQYJYIZIAYb4QgEBBAQDAgZAMBsGCWCGSAGG+EIBDQQO
FgxnYXRld2F5OnRydWUwCwYDVR0PBAQDAgXgMCoGA1UdJQQjMCEGCisGAQQBgjcK
AwMGCWCGSAGG+EIEAQYIKwYBBQUHAwEwDQYJKoZIhvcNAQEEBQADggEBAJNQwBpG
Ak+e216PPxipzYHUoWra0TlPhyy3JWW33CYSLH/XZ1KltIsujh/YIXMEq1ywvsgM
f5NNfiTleC2gl9KeDzWuo/2hYZ1ehX2FWguvU7rWmG3wjw6GqNI8j0ljYN83YxjS
xTkQowsG4tgRIVViAS9QNIEOEAoiwerML4xMDoyFd9iNONX9YNBbDl/7wTkjnOVk
dy8XMzNh8l4EtpwEN+7MEzPW6Nn9q4HO+b8OIe8kvUA4o22GRBZ5pPrVO5Yrv9fU
kHPJUjz2BCtpWS/tx5B4ZTiheUZ9RlwBa5W6cZaPcbg1lVS9Qe1QRW5xPcWnXPjg
7fRbhB6HtkOKXMI=
-----END CERTIFICATE-----
