Certificate:
    Data:
        Version: 3 (0x2)
        Serial Number: 2 (0x2)
        Signature Algorithm: md5WithRSAEncryption
        Issuer: C=DE, L=NRW, O=TU, OU=DA, CN=eugen
        Validity
            Not Before: Jan 19 13:48:49 2012 GMT
            Not After : Jan 18 13:48:49 2013 GMT
        Subject: C=DE, L=NRW, O=TU, OU=DA, CN=router
        Subject Public Key Info:
            Public Key Algorithm: id-ecPublicKey
                Public-Key: (256 bit)
                pub: 
                    04:db:e8:f4:34:a2:4b:b5:79:ee:a1:86:6b:6a:a1:
                    8d:83:45:4c:ce:79:20:49:d3:3b:3c:51:a9:9b:07:
                    c6:65:6b:42:67:9e:df:96:8e:e1:cb:74:96:d4:27:
                    36:04:43:3f:3b:95:32:97:13:cf:86:1a:3e:fb:e2:
                    a1:18:88:74:04
                ASN1 OID: prime256v1
        X509v3 extensions:
            Netscape Cert Type: 
                SSL Client
            X509v3 Key Usage: 
                Digital Signature, Non Repudiation, Key Encipherment, Data Encipherment
    Signature Algorithm: md5WithRSAEncryption
        68:6b:09:f0:62:41:e2:69:fb:27:fa:02:6c:28:99:1a:fa:4d:
        23:eb:e6:dc:6c:3f:e4:10:5b:e3:5e:ef:90:79:5f:e5:ce:95:
        42:53:2a:bc:ac:e9:37:cd:73:85:ca:51:90:87:6e:fc:1b:27:
        09:f0:f5:6f:e9:ce:5b:90:ef:f3:36:28:ba:d4:df:5d:03:c0:
        8e:3e:26:3f:9a:48:71:86:e7:31:60:2f:eb:03:5e:ee:4e:ee:
        28:ac:29:e7:83:7e:7d:f0:97:ec:6f:25:64:c9:f6:76:f0:3d:
        9d:47:fb:d5:74:d5:a9:e5:6a:79:7e:ce:85:62:8b:b5:d7:b2:
        2f:5d:1b:c9:ae:22:5b:89:6d:58:64:93:ee:36:94:bf:63:67:
        62:40:e8:5d:5a:7b:4a:f7:51:67:84:e6:7c:f7:cd:39:65:b3:
        d7:ac:37:95:cd:a6:b6:b8:a0:dd:92:36:85:d5:22:46:92:01:
        af:1b:d8:d6:a7:9b:03:76:91:88:0a:2c:98:dd:0f:1f:7f:4a:
        fb:59:88:62:38:c4:21:95:28:cf:ac:7e:18:1a:32:90:7e:e1:
        3d:52:27:44:dc:de:a8:d7:04:80:9a:4b:33:d1:fe:00:40:a5:
        47:25:15:5d:e7:75:05:72:24:b1:5a:8a:31:3c:31:7a:89:f4:
        78:05:3a:30
-----BEGIN CERTIFICATE-----
MIICXTCCAUWgAwIBAgIBAjANBgkqhkiG9w0BAQQFADBFMQswCQYDVQQGEwJERTEM
MAoGA1UEBxMDTlJXMQswCQYDVQQKEwJUVTELMAkGA1UECxMCREExDjAMBgNVBAMT
BWV1Z2VuMB4XDTEyMDExOTEzNDg0OVoXDTEzMDExODEzNDg0OVowRjELMAkGA1UE
BhMCREUxDDAKBgNVBAcTA05SVzELMAkGA1UEChMCVFUxCzAJBgNVBAsTAkRBMQ8w
DQYDVQQDEwZyb3V0ZXIwWTATBgcqhkjOPQIBBggqhkjOPQMBBwNCAATb6PQ0oku1
ee6hhmtqoY2DRUzOeSBJ0zs8UambB8Zla0Jnnt+WjuHLdJbUJzYEQz87lTKXE8+G
Gj774qEYiHQEoyIwIDARBglghkgBhvhCAQEEBAMCB4AwCwYDVR0PBAQDAgTwMA0G
CSqGSIb3DQEBBAUAA4IBAQBoawnwYkHiafsn+gJsKJka+k0j6+bcbD/kEFvjXu+Q
eV/lzpVCUyq8rOk3zXOFylGQh278GycJ8PVv6c5bkO/zNii61N9dA8COPiY/mkhx
hucxYC/rA17uTu4orCnng3598JfsbyVkyfZ28D2dR/vVdNWp5Wp5fs6FYou117Iv
XRvJriJbiW1YZJPuNpS/Y2diQOhdWntK91FnhOZ89805ZbPXrDeVzaa2uKDdkjaF
1SJGkgGvG9jWp5sDdpGICiyY3Q8ff0r7WYhiOMQhlSjPrH4YGjKQfuE9UidE3N6o
1wSAmksz0f4AQKVHJRVd53UFciSxWooxPDF6ifR4BTow
-----END CERTIFICATE-----
